Certificate:
    Data:
        Version: 1 (0x0)
        Serial Number: 1 (0x1)
    Signature Algorithm: sha1WithRSAEncryption
        Issuer: emailAddress=threeca@ignite.apache.org, CN=threeca, OU=Dev, O=Ignite, L=SPb, ST=SPb, C=RU
        Validity
            Not Before: Nov  7 00:00:00 2019 GMT
            Not After : Nov  7 19:37:48 2039 GMT
        Subject: CN=connectorClient
        Subject Public Key Info:
            Public Key Algorithm: rsaEncryption
                Public-Key: (1024 bit)
                Modulus:
                    00:84:b3:07:23:9f:0a:20:30:56:ab:96:71:2c:e3:
                    fb:2c:bf:8d:5f:9b:c3:56:49:9d:38:c2:76:62:27:
                    63:30:95:58:2b:a4:df:3f:fe:f6:cc:32:f1:8d:bd:
                    3b:ed:a8:5e:e4:61:0a:14:0a:41:87:2c:d3:82:90:
                    f7:b8:b0:9b:b6:cb:3b:e4:81:75:0d:64:83:cd:83:
                    95:92:37:33:fd:b0:20:5d:78:3f:e4:d5:b2:52:98:
                    d2:17:42:2a:3c:52:b3:aa:7b:b0:5e:ee:a3:cf:09:
                    0a:06:c9:31:45:0b:81:c0:6f:6c:9c:dc:f3:5c:b5:
                    b1:be:af:3b:90:65:05:60:e1
                Exponent: 65537 (0x10001)
    Signature Algorithm: sha1WithRSAEncryption
         bc:f0:73:2a:e9:57:e0:64:68:46:5a:40:8b:24:6e:4c:e3:76:
         56:8f:02:15:e5:2a:f0:7e:f9:f1:dd:76:fc:f8:56:39:83:0f:
         70:81:cc:b5:b9:5a:a8:4b:3d:8b:6e:07:15:4f:f9:2f:6d:00:
         44:53:7d:54:fb:96:02:2e:eb:35:a7:4b:be:f2:25:b1:6b:80:
         e2:ea:f4:7f:7f:32:1f:6f:c4:96:6f:03:d1:0d:58:07:ab:9b:
         0c:7b:22:99:d6:78:6a:70:c9:bd:3a:16:df:cb:c8:29:ff:89:
         74:ae:89:bb:32:20:64:2b:e3:3f:4b:ea:cc:5c:37:d3:8e:0d:
         b8:e4:36:91:ca:5f:a2:ae:e3:b7:86:17:28:37:8e:69:b5:85:
         30:77:d4:b7:17:13:41:b8:2f:2b:86:be:d4:30:8d:b5:33:75:
         c0:b1:34:16:37:41:9a:24:2a:53:83:be:86:70:b9:ce:11:56:
         81:9c:c9:30:4c:5b:92:95:9b:02:c3:d1:d2:24:41:78:52:a7:
         d0:10:66:ea:bd:5c:34:4d:b2:88:ad:23:47:43:56:5f:03:a1:
         8e:89:f1:c9:18:5f:12:32:d5:40:ca:ab:76:ee:70:68:a6:98:
         fa:f8:21:90:48:65:a6:87:af:8a:e1:ff:60:e2:bd:f1:36:ce:
         9d:80:51:f9
-----BEGIN CERTIFICATE-----
MIICjzCCAXcCAQEwDQYJKoZIhvcNAQEFBQAwgYQxKDAmBgkqhkiG9w0BCQEWGXRo
cmVlY2FAaWduaXRlLmFwYWNoZS5vcmcxEDAOBgNVBAMMB3RocmVlY2ExDDAKBgNV
BAsMA0RldjEPMA0GA1UECgwGSWduaXRlMQwwCgYDVQQHDANTUGIxDDAKBgNVBAgM
A1NQYjELMAkGA1UEBhMCUlUwHhcNMTkxMTA3MDAwMDAwWhcNMzkxMTA3MTkzNzQ4
WjAaMRgwFgYDVQQDEw9jb25uZWN0b3JDbGllbnQwgZ8wDQYJKoZIhvcNAQEBBQAD
gY0AMIGJAoGBAISzByOfCiAwVquWcSzj+yy/jV+bw1ZJnTjCdmInYzCVWCuk3z/+
9swy8Y29O+2oXuRhChQKQYcs04KQ97iwm7bLO+SBdQ1kg82DlZI3M/2wIF14P+TV
slKY0hdCKjxSs6p7sF7uo88JCgbJMUULgcBvbJzc81y1sb6vO5BlBWDhAgMBAAEw
DQYJKoZIhvcNAQEFBQADggEBALzwcyrpV+BkaEZaQIskbkzjdlaPAhXlKvB++fHd
dvz4VjmDD3CBzLW5WqhLPYtuBxVP+S9tAERTfVT7lgIu6zWnS77yJbFrgOLq9H9/
Mh9vxJZvA9ENWAermwx7IpnWeGpwyb06Ft/LyCn/iXSuibsyIGQr4z9L6sxcN9OO
DbjkNpHKX6Ku47eGFyg3jmm1hTB31LcXE0G4LyuGvtQwjbUzdcCxNBY3QZokKlOD
voZwuc4RVoGcyTBMW5KVmwLD0dIkQXhSp9AQZuq9XDRNsoitI0dDVl8DoY6J8ckY
XxIy1UDKq3bucGimmPr4IZBIZaaHr4rh/2DivfE2zp2AUfk=
-----END CERTIFICATE-----
