Certificate:
    Data:
        Version: 1 (0x0)
        Serial Number: 2 (0x2)
    Signature Algorithm: sha1WithRSAEncryption
        Issuer: emailAddress=threeca@ignite.apache.org, CN=threeca, OU=Dev, O=Ignite, L=SPb, ST=SPb, C=RU
        Validity
            Not Before: Nov  7 00:00:00 2019 GMT
            Not After : Nov  7 19:37:49 2039 GMT
        Subject: CN=connectorServer
        Subject Public Key Info:
            Public Key Algorithm: rsaEncryption
                Public-Key: (1024 bit)
                Modulus:
                    00:93:20:93:9b:3e:4b:cf:c3:ec:c6:f2:14:7b:da:
                    49:51:bb:13:f8:f3:5a:8e:ec:f3:49:e7:a2:a6:05:
                    cd:41:8b:47:fa:9a:2a:ec:5a:d5:90:73:ca:91:7b:
                    8a:dd:52:f4:5e:35:a6:d1:e8:f0:b0:c0:38:c3:83:
                    ef:fa:d8:69:08:9f:26:02:4f:22:0e:96:3c:23:c9:
                    88:9b:98:dd:e1:3e:13:fd:1c:4d:98:0e:a3:bc:8f:
                    62:9c:61:c8:89:04:39:57:96:43:d0:fe:5f:2b:47:
                    fd:8b:dd:cf:18:59:83:fa:79:3e:ed:a4:ac:8e:76:
                    3c:f2:3e:58:50:ef:48:ec:33
                Exponent: 65537 (0x10001)
    Signature Algorithm: sha1WithRSAEncryption
         34:f2:d4:a6:de:d2:31:94:2f:3f:12:c8:10:4e:f8:bb:d1:0a:
         af:f7:7e:41:33:a8:98:25:1b:33:88:47:08:35:25:9f:19:19:
         74:f6:3d:c8:94:29:e0:9b:11:cf:e8:36:d6:cf:98:ed:34:a4:
         fb:d7:0b:da:56:61:ac:2a:51:5a:e0:bc:10:98:07:2f:57:95:
         12:51:86:43:15:2c:87:ff:c9:aa:83:50:b2:6d:30:13:f4:aa:
         d7:c5:a5:f9:f6:56:2f:8b:e2:14:56:1d:8d:1f:5a:44:cd:8c:
         25:61:1b:b6:32:9b:4b:88:fc:e4:dc:9d:30:fc:69:ec:55:62:
         45:d8:6e:d4:d4:55:35:3c:45:fe:22:19:8c:48:b7:ee:6f:ec:
         0f:de:57:5b:c7:57:e5:a2:2e:97:92:04:2f:32:6b:54:c5:00:
         05:d5:60:3a:d7:b5:0a:4f:d4:27:4a:c6:25:a7:1c:86:9b:56:
         b1:27:93:aa:cc:8c:51:40:b6:3a:15:c5:94:e9:e4:4f:49:55:
         21:f1:76:3e:6a:1e:93:bc:ff:0a:72:72:e8:1b:0e:80:65:81:
         10:be:c7:a0:b4:f3:96:47:cb:b2:51:66:71:de:6e:63:60:3f:
         cb:98:b1:78:1e:6a:9d:4a:6a:84:a1:b1:c9:1a:37:44:a4:87:
         3d:17:6d:d3
-----BEGIN CERTIFICATE-----
MIICjzCCAXcCAQIwDQYJKoZIhvcNAQEFBQAwgYQxKDAmBgkqhkiG9w0BCQEWGXRo
cmVlY2FAaWduaXRlLmFwYWNoZS5vcmcxEDAOBgNVBAMMB3RocmVlY2ExDDAKBgNV
BAsMA0RldjEPMA0GA1UECgwGSWduaXRlMQwwCgYDVQQHDANTUGIxDDAKBgNVBAgM
A1NQYjELMAkGA1UEBhMCUlUwHhcNMTkxMTA3MDAwMDAwWhcNMzkxMTA3MTkzNzQ5
WjAaMRgwFgYDVQQDEw9jb25uZWN0b3JTZXJ2ZXIwgZ8wDQYJKoZIhvcNAQEBBQAD
gY0AMIGJAoGBAJMgk5s+S8/D7MbyFHvaSVG7E/jzWo7s80nnoqYFzUGLR/qaKuxa
1ZBzypF7it1S9F41ptHo8LDAOMOD7/rYaQifJgJPIg6WPCPJiJuY3eE+E/0cTZgO
o7yPYpxhyIkEOVeWQ9D+XytH/YvdzxhZg/p5Pu2krI52PPI+WFDvSOwzAgMBAAEw
DQYJKoZIhvcNAQEFBQADggEBADTy1Kbe0jGULz8SyBBO+LvRCq/3fkEzqJglGzOI
Rwg1JZ8ZGXT2PciUKeCbEc/oNtbPmO00pPvXC9pWYawqUVrgvBCYBy9XlRJRhkMV
LIf/yaqDULJtMBP0qtfFpfn2Vi+L4hRWHY0fWkTNjCVhG7Yym0uI/OTcnTD8aexV
YkXYbtTUVTU8Rf4iGYxIt+5v7A/eV1vHV+WiLpeSBC8ya1TFAAXVYDrXtQpP1CdK
xiWnHIabVrEnk6rMjFFAtjoVxZTp5E9JVSHxdj5qHpO8/wpycugbDoBlgRC+x6C0
85ZHy7JRZnHebmNgP8uYsXgeap1KaoShsckaN0Skhz0XbdM=
-----END CERTIFICATE-----
