Certificate:
    Data:
        Version: 1 (0x0)
        Serial Number: 3 (0x3)
    Signature Algorithm: sha1WithRSAEncryption
        Issuer: emailAddress=twoca@ignite.apache.org, CN=twoca, OU=Dev, O=Ignite, L=SPb, ST=SPb, C=RU
        Validity
            Not Before: Nov  7 00:00:00 2019 GMT
            Not After : Nov  7 19:37:51 2039 GMT
        Subject: CN=node02
        Subject Public Key Info:
            Public Key Algorithm: rsaEncryption
                Public-Key: (1024 bit)
                Modulus:
                    00:93:81:8a:43:24:0d:37:4d:a6:07:16:e1:4e:06:
                    71:97:85:a5:e0:7c:46:5b:cd:5a:aa:2a:33:e7:99:
                    2a:cb:1b:15:88:4e:09:41:d6:5b:61:6e:77:2e:1d:
                    d8:10:ad:73:f2:fd:29:be:47:bc:57:8a:f5:ff:b5:
                    74:3e:8e:e7:66:3d:5a:e2:b7:e7:ef:ba:ff:79:78:
                    0c:9f:cc:4d:d6:40:5f:01:73:7c:0e:2b:f8:1f:99:
                    f3:e4:5f:eb:4c:00:75:3d:5a:77:53:f7:48:c1:13:
                    9e:58:a3:11:e4:73:dd:80:f2:67:4a:fd:1d:8b:26:
                    3c:7e:3e:50:e0:dc:3a:64:35
                Exponent: 65537 (0x10001)
    Signature Algorithm: sha1WithRSAEncryption
         5f:0c:19:6a:4b:1e:3d:54:b6:0c:0c:93:bd:da:02:cf:5e:c6:
         f0:88:e6:ed:db:3f:ca:0e:17:34:f4:e5:f3:a5:10:88:69:48:
         01:f5:1a:56:9e:ab:17:89:bf:7a:f7:75:c8:41:ec:42:48:05:
         5e:58:21:4a:7d:54:c5:8e:a8:bb:85:1a:66:15:fd:7d:00:73:
         8d:b2:71:c2:6f:34:93:4d:21:a7:4f:5c:0c:76:65:d0:97:24:
         4a:b9:f3:6e:d6:90:59:59:85:ee:cc:65:97:6b:67:37:42:2b:
         3d:23:cd:e1:79:ae:99:97:4f:2a:90:92:7a:7f:79:71:2f:f2:
         94:1c:06:6b:00:19:b3:2e:3c:68:07:29:43:8e:29:a2:ee:ff:
         83:ae:24:b3:e0:3e:29:07:fc:8e:b6:1e:65:49:90:88:17:de:
         99:af:3d:2f:b3:d3:90:ac:c6:8f:94:36:31:89:97:00:5f:6e:
         45:a3:4d:4c:a5:8d:74:78:7d:46:13:8e:f5:7f:a6:a2:b7:28:
         4a:7d:71:d5:23:6d:12:ac:52:9f:b7:2e:9a:ea:e0:20:e4:72:
         e0:9e:18:89:d8:4c:0f:5f:ef:8e:95:4c:e4:bc:49:56:b0:3a:
         34:bf:40:e1:75:5a:a3:c1:05:d6:2c:a2:3e:c8:aa:eb:33:f5:
         d8:28:cb:51
-----BEGIN CERTIFICATE-----
MIICgjCCAWoCAQMwDQYJKoZIhvcNAQEFBQAwgYAxJjAkBgkqhkiG9w0BCQEWF3R3
b2NhQGlnbml0ZS5hcGFjaGUub3JnMQ4wDAYDVQQDDAV0d29jYTEMMAoGA1UECwwD
RGV2MQ8wDQYDVQQKDAZJZ25pdGUxDDAKBgNVBAcMA1NQYjEMMAoGA1UECAwDU1Bi
MQswCQYDVQQGEwJSVTAeFw0xOTExMDcwMDAwMDBaFw0zOTExMDcxOTM3NTFaMBEx
DzANBgNVBAMTBm5vZGUwMjCBnzANBgkqhkiG9w0BAQEFAAOBjQAwgYkCgYEAk4GK
QyQNN02mBxbhTgZxl4Wl4HxGW81aqioz55kqyxsViE4JQdZbYW53Lh3YEK1z8v0p
vke8V4r1/7V0Po7nZj1a4rfn77r/eXgMn8xN1kBfAXN8Div4H5nz5F/rTAB1PVp3
U/dIwROeWKMR5HPdgPJnSv0diyY8fj5Q4Nw6ZDUCAwEAATANBgkqhkiG9w0BAQUF
AAOCAQEAXwwZaksePVS2DAyTvdoCz17G8Ijm7ds/yg4XNPTl86UQiGlIAfUaVp6r
F4m/evd1yEHsQkgFXlghSn1UxY6ou4UaZhX9fQBzjbJxwm80k00hp09cDHZl0Jck
SrnzbtaQWVmF7sxll2tnN0IrPSPN4XmumZdPKpCSen95cS/ylBwGawAZsy48aAcp
Q44pou7/g64ks+A+KQf8jrYeZUmQiBfema89L7PTkKzGj5Q2MYmXAF9uRaNNTKWN
dHh9RhOO9X+morcoSn1x1SNtEqxSn7cumurgIORy4J4YidhMD1/vjpVM5LxJVrA6
NL9A4XVao8EF1iyiPsiq6zP12CjLUQ==
-----END CERTIFICATE-----
