Certificate:
    Data:
        Version: 1 (0x0)
        Serial Number: 4 (0x4)
    Signature Algorithm: sha1WithRSAEncryption
        Issuer: emailAddress=twoca@ignite.apache.org, CN=twoca, OU=Dev, O=Ignite, L=SPb, ST=SPb, C=RU
        Validity
            Not Before: Nov  7 00:00:00 2019 GMT
            Not After : Nov  7 19:37:53 2039 GMT
        Subject: CN=node03
        Subject Public Key Info:
            Public Key Algorithm: rsaEncryption
                Public-Key: (1024 bit)
                Modulus:
                    00:a1:87:95:d5:d7:e3:f2:82:f6:44:30:92:dc:e7:
                    3e:30:5e:b4:59:cb:2d:ee:36:d3:a1:9f:a0:4e:8d:
                    06:38:a7:a7:57:0a:72:1e:e9:23:8f:d7:80:70:46:
                    38:09:75:76:1f:46:c5:fe:e2:13:58:cb:69:a6:a2:
                    a2:85:11:81:ae:3e:09:2e:b3:07:9c:04:47:93:91:
                    4b:b2:d3:a8:3a:4c:78:04:92:7c:71:e0:5d:c0:cb:
                    0b:b4:c8:c6:0a:d1:0e:a5:6a:eb:2b:11:4c:80:51:
                    d8:55:24:9d:f5:a0:97:2a:8c:45:18:ee:4f:31:8a:
                    12:f7:a0:a1:83:7f:c8:2f:95
                Exponent: 65537 (0x10001)
    Signature Algorithm: sha1WithRSAEncryption
         2b:25:6d:78:9c:1e:da:32:11:87:cf:da:8a:0e:59:32:6d:51:
         80:b8:0c:e6:f9:0c:e3:36:31:44:5b:f9:ca:76:02:12:a4:2f:
         95:fc:a6:02:88:ec:11:a9:9a:bc:11:88:ec:55:1a:9e:3e:79:
         46:40:43:f1:1a:8e:95:c8:d9:c5:37:41:f8:fd:6e:ce:e3:75:
         78:72:99:73:35:a1:3a:07:14:d3:f1:03:52:56:40:6a:47:ea:
         e2:a8:e3:41:26:9e:a0:16:0a:69:1f:bf:df:d8:7f:14:e3:e5:
         8d:6b:44:0b:a4:25:6e:a2:da:69:91:0a:a6:f0:fa:44:0e:4f:
         74:4b:ba:8a:21:68:6a:08:37:94:2e:1c:f8:94:02:63:bf:be:
         23:38:ea:c6:d9:b7:e0:45:db:5f:dc:4b:c0:40:dd:be:b2:d6:
         e1:b2:05:e1:65:2f:e8:b7:bb:64:c5:01:19:5b:85:07:0a:db:
         9e:07:3b:c3:f0:70:65:96:c6:7f:40:95:66:fd:d7:d3:63:0d:
         98:56:34:7f:f0:bd:9f:fb:36:92:1c:40:ed:21:02:64:66:61:
         41:ca:9a:ce:8b:bb:29:7b:7b:46:ea:ad:18:20:15:e3:35:b6:
         a4:66:ad:94:f1:51:a6:ec:6d:3e:97:87:38:bb:ba:27:82:7c:
         3d:b8:b1:03
-----BEGIN CERTIFICATE-----
MIICgjCCAWoCAQQwDQYJKoZIhvcNAQEFBQAwgYAxJjAkBgkqhkiG9w0BCQEWF3R3
b2NhQGlnbml0ZS5hcGFjaGUub3JnMQ4wDAYDVQQDDAV0d29jYTEMMAoGA1UECwwD
RGV2MQ8wDQYDVQQKDAZJZ25pdGUxDDAKBgNVBAcMA1NQYjEMMAoGA1UECAwDU1Bi
MQswCQYDVQQGEwJSVTAeFw0xOTExMDcwMDAwMDBaFw0zOTExMDcxOTM3NTNaMBEx
DzANBgNVBAMTBm5vZGUwMzCBnzANBgkqhkiG9w0BAQEFAAOBjQAwgYkCgYEAoYeV
1dfj8oL2RDCS3Oc+MF60Wcst7jbToZ+gTo0GOKenVwpyHukjj9eAcEY4CXV2H0bF
/uITWMtppqKihRGBrj4JLrMHnARHk5FLstOoOkx4BJJ8ceBdwMsLtMjGCtEOpWrr
KxFMgFHYVSSd9aCXKoxFGO5PMYoS96Chg3/IL5UCAwEAATANBgkqhkiG9w0BAQUF
AAOCAQEAKyVteJwe2jIRh8/aig5ZMm1RgLgM5vkM4zYxRFv5ynYCEqQvlfymAojs
EamavBGI7FUanj55RkBD8RqOlcjZxTdB+P1uzuN1eHKZczWhOgcU0/EDUlZAakfq
4qjjQSaeoBYKaR+/39h/FOPljWtEC6QlbqLaaZEKpvD6RA5PdEu6iiFoagg3lC4c
+JQCY7++Izjqxtm34EXbX9xLwEDdvrLW4bIF4WUv6Le7ZMUBGVuFBwrbngc7w/Bw
ZZbGf0CVZv3X02MNmFY0f/C9n/s2khxA7SECZGZhQcqazou7KXt7RuqtGCAV4zW2
pGatlPFRpuxtPpeHOLu6J4J8PbixAw==
-----END CERTIFICATE-----
