Certificate:
    Data:
        Version: 1 (0x0)
        Serial Number: 5 (0x5)
    Signature Algorithm: sha1WithRSAEncryption
        Issuer: emailAddress=twoca@ignite.apache.org, CN=twoca, OU=Dev, O=Ignite, L=SPb, ST=SPb, C=RU
        Validity
            Not Before: Nov  5 19:37:54 2019 GMT
            Not After : Nov  6 19:37:54 2019 GMT
        Subject: CN=node02old
        Subject Public Key Info:
            Public Key Algorithm: rsaEncryption
                Public-Key: (1024 bit)
                Modulus:
                    00:8e:10:6a:ef:11:96:60:04:41:68:97:1f:af:2a:
                    3e:de:90:dc:4b:57:df:ea:7b:f6:13:bd:71:89:fe:
                    bc:6d:72:de:aa:d4:18:a1:56:5e:9e:5f:ab:81:11:
                    69:e7:af:9e:6a:3e:3f:f3:3c:75:c6:be:0e:c7:42:
                    43:19:8d:19:0c:b4:c3:78:b2:04:39:dc:fd:5c:45:
                    49:3a:f0:b1:8a:e6:f8:98:ec:ef:9b:73:fc:47:9b:
                    ec:70:1f:db:4e:ab:47:ce:ba:1c:33:4d:a3:7b:a6:
                    62:93:ec:c6:55:61:72:c9:ce:d0:64:75:fa:1a:a2:
                    cb:9c:b3:89:b7:6b:26:76:ff
                Exponent: 65537 (0x10001)
    Signature Algorithm: sha1WithRSAEncryption
         2f:e2:c1:bb:ec:12:df:af:9d:6b:6a:66:d6:e8:be:34:7b:e6:
         94:00:d8:9e:b1:9e:04:77:8e:a5:6e:82:67:90:e9:2d:92:5c:
         3a:fd:3c:16:a5:34:bc:fd:a9:de:99:61:bf:a2:d9:b4:d8:0b:
         61:a9:90:d4:5d:e7:45:e7:ed:1a:2f:67:6c:a8:01:4e:0b:77:
         e3:b8:21:c9:b8:13:85:13:c2:13:2b:26:08:e6:6e:9b:66:16:
         ad:f3:98:0e:ad:d3:e4:28:9e:92:f0:f3:b6:98:95:c3:b7:22:
         42:55:6c:43:47:8b:35:8d:a3:a0:3e:45:33:b6:c8:f6:02:03:
         30:c3:94:00:a6:e2:be:ed:30:ef:38:f4:7d:db:3d:e5:f2:5c:
         bb:95:94:e8:72:18:c7:cb:25:ff:fd:a9:8b:b6:0d:35:98:8e:
         3c:f0:36:18:7e:52:3b:e1:a9:cb:60:85:96:f7:f4:7f:f6:5e:
         6d:25:f2:31:af:32:85:6b:ad:0f:0e:78:c7:2b:4b:be:0a:1e:
         8d:3d:3c:e6:8c:98:df:0e:e0:ae:f9:0c:bf:1e:d8:58:f8:6a:
         58:18:bd:83:dd:2c:fc:89:4d:3d:d5:8c:71:a2:34:d9:ab:d2:
         29:33:1f:b5:6b:e4:89:18:0d:c5:be:b4:4f:9a:ed:3a:33:27:
         a6:ec:a9:11
-----BEGIN CERTIFICATE-----
MIIChTCCAW0CAQUwDQYJKoZIhvcNAQEFBQAwgYAxJjAkBgkqhkiG9w0BCQEWF3R3
b2NhQGlnbml0ZS5hcGFjaGUub3JnMQ4wDAYDVQQDDAV0d29jYTEMMAoGA1UECwwD
RGV2MQ8wDQYDVQQKDAZJZ25pdGUxDDAKBgNVBAcMA1NQYjEMMAoGA1UECAwDU1Bi
MQswCQYDVQQGEwJSVTAeFw0xOTExMDUxOTM3NTRaFw0xOTExMDYxOTM3NTRaMBQx
EjAQBgNVBAMTCW5vZGUwMm9sZDCBnzANBgkqhkiG9w0BAQEFAAOBjQAwgYkCgYEA
jhBq7xGWYARBaJcfryo+3pDcS1ff6nv2E71xif68bXLeqtQYoVZenl+rgRFp56+e
aj4/8zx1xr4Ox0JDGY0ZDLTDeLIEOdz9XEVJOvCxiub4mOzvm3P8R5vscB/bTqtH
zrocM02je6Zik+zGVWFyyc7QZHX6GqLLnLOJt2smdv8CAwEAATANBgkqhkiG9w0B
AQUFAAOCAQEAL+LBu+wS36+da2pm1ui+NHvmlADYnrGeBHeOpW6CZ5DpLZJcOv08
FqU0vP2p3plhv6LZtNgLYamQ1F3nReftGi9nbKgBTgt347ghybgThRPCEysmCOZu
m2YWrfOYDq3T5CiekvDztpiVw7ciQlVsQ0eLNY2joD5FM7bI9gIDMMOUAKbivu0w
7zj0fds95fJcu5WU6HIYx8sl//2pi7YNNZiOPPA2GH5SO+Gpy2CFlvf0f/ZebSXy
Ma8yhWutDw54xytLvgoejT085oyY3w7grvkMvx7YWPhqWBi9g90s/IlNPdWMcaI0
2avSKTMftWvkiRgNxb60T5rtOjMnpuypEQ==
-----END CERTIFICATE-----
